; Function Attrs: mustprogress nofree norecurse nosync nounwind willreturn memory(write, argmem: readwrite, inaccessiblemem: none) uwtable
define void @_ZN7httplib6Client17set_write_timeoutEll(ptr nocapture noundef nonnull readonly align 8 dereferenceable(9) %this, i64 noundef %sec, i64 noundef %usec) local_unnamed_addr #22 align 2 {
entry:
  %0 = load ptr, ptr %this, align 8
  %write_timeout_sec_.i = getelementptr inbounds i8, ptr %0, i64 424
  store i64 %sec, ptr %write_timeout_sec_.i, align 8
  %write_timeout_usec_.i = getelementptr inbounds i8, ptr %0, i64 432
  store i64 %usec, ptr %write_timeout_usec_.i, align 8
  ret void
}